target datalayout = "e-m:e-p270:32:32-p271:32:32-p272:64:64-i64:64-i128:128-f80:128-n8:16:32:64-S128"
target triple = "x86_64-pc-linux-gnu"

@sDefaultDwaLevel = internal global float 4.500000e+01, align 4

; Function Attrs: nounwind uwtable
define void @exr_get_default_dwa_compression_quality(ptr noundef %0) #0 {
  %2 = alloca ptr, align 8
  store ptr %0, ptr %2, align 8, !tbaa !17
  %3 = load ptr, ptr %2, align 8, !tbaa !17
  %4 = icmp ne ptr %3, null
  br i1 %4, label %5, label %8

5:                                                ; preds = %1
  %6 = load float, ptr @sDefaultDwaLevel, align 4, !tbaa !15
  %7 = load ptr, ptr %2, align 8, !tbaa !17
  store float %6, ptr %7, align 4, !tbaa !15
  br label %8

8:                                                ; preds = %5, %1
  ret void
}